; Function Attrs: nounwind uwtable
define nonnull ptr @l_Array_forIn_x27Unsafe_loop___at_Lean_Elab_processHeaderCore___spec__1___boxed(ptr noundef %0, ptr noundef %1, ptr noundef %2, ptr noundef %3, ptr noundef %4, ptr noundef %5, ptr noundef %6, ptr noundef %7, ptr noundef %8) local_unnamed_addr #0 {
  %10 = ptrtoint ptr %1 to i64
  %11 = lshr i64 %10, 1
  %12 = trunc i64 %11 to i8
  %13 = and i64 %10, 1
  %.not = icmp eq i64 %13, 0
  br i1 %.not, label %14, label %lean_dec.exit24

14:                                               ; preds = %9
  %15 = load i32, ptr %1, align 4, !tbaa !8
  %16 = icmp sgt i32 %15, 1
  br i1 %16, label %17, label %19, !prof !11

17:                                               ; preds = %14
  %18 = add nsw i32 %15, -1
  store i32 %18, ptr %1, align 4, !tbaa !8
  br label %lean_dec.exit24

19:                                               ; preds = %14
  %.not.i = icmp eq i32 %15, 0
  br i1 %.not.i, label %lean_dec.exit24, label %20

20:                                               ; preds = %19
  tail call void @lean_dec_ref_cold(ptr noundef nonnull %1) #5
  br label %lean_dec.exit24

lean_dec.exit24:                                  ; preds = %20, %19, %17, %9
  %21 = getelementptr i8, ptr %5, i64 8
  %.val37 = load i64, ptr %21, align 8, !tbaa !12
  %22 = ptrtoint ptr %5 to i64
  %23 = and i64 %22, 1
  %.not38 = icmp eq i64 %23, 0
  br i1 %.not38, label %24, label %lean_dec.exit23

24:                                               ; preds = %lean_dec.exit24
  %25 = load i32, ptr %5, align 4, !tbaa !8
  %26 = icmp sgt i32 %25, 1
  br i1 %26, label %27, label %29, !prof !11

27:                                               ; preds = %24
  %28 = add nsw i32 %25, -1
  store i32 %28, ptr %5, align 4, !tbaa !8
  br label %lean_dec.exit23

29:                                               ; preds = %24
  %.not.i25 = icmp eq i32 %25, 0
  br i1 %.not.i25, label %lean_dec.exit23, label %30

30:                                               ; preds = %29
  tail call void @lean_dec_ref_cold(ptr noundef nonnull %5) #5
  br label %lean_dec.exit23

lean_dec.exit23:                                  ; preds = %30, %29, %27, %lean_dec.exit24
  %31 = getelementptr i8, ptr %6, i64 8
  %.val = load i64, ptr %31, align 8, !tbaa !12
  %32 = ptrtoint ptr %6 to i64
  %33 = and i64 %32, 1
  %.not39 = icmp eq i64 %33, 0
  br i1 %.not39, label %34, label %lean_dec.exit22

34:                                               ; preds = %lean_dec.exit23
  %35 = load i32, ptr %6, align 4, !tbaa !8
  %36 = icmp sgt i32 %35, 1
  br i1 %36, label %37, label %39, !prof !11

37:                                               ; preds = %34
  %38 = add nsw i32 %35, -1
  store i32 %38, ptr %6, align 4, !tbaa !8
  br label %lean_dec.exit22

39:                                               ; preds = %34
  %.not.i27 = icmp eq i32 %35, 0
  br i1 %.not.i27, label %lean_dec.exit22, label %40

40:                                               ; preds = %39
  tail call void @lean_dec_ref_cold(ptr noundef nonnull %6) #5
  br label %lean_dec.exit22

lean_dec.exit22:                                  ; preds = %40, %39, %37, %lean_dec.exit23
  %41 = tail call ptr @l_Array_forIn_x27Unsafe_loop___at_Lean_Elab_processHeaderCore___spec__1(ptr poison, i8 noundef zeroext %12, ptr noundef %2, ptr poison, ptr noundef %4, i64 noundef %.val37, i64 noundef %.val, ptr noundef %7, ptr noundef %8)
  %42 = ptrtoint ptr %4 to i64
  %43 = and i64 %42, 1
  %.not40 = icmp eq i64 %43, 0
  br i1 %.not40, label %44, label %lean_dec.exit21

44:                                               ; preds = %lean_dec.exit22
  %45 = load i32, ptr %4, align 4, !tbaa !8
  %46 = icmp sgt i32 %45, 1
  br i1 %46, label %47, label %49, !prof !11

47:                                               ; preds = %44
  %48 = add nsw i32 %45, -1
  store i32 %48, ptr %4, align 4, !tbaa !8
  br label %lean_dec.exit21

49:                                               ; preds = %44
  %.not.i29 = icmp eq i32 %45, 0
  br i1 %.not.i29, label %lean_dec.exit21, label %50

50:                                               ; preds = %49
  tail call void @lean_dec_ref_cold(ptr noundef nonnull %4) #5
  br label %lean_dec.exit21

lean_dec.exit21:                                  ; preds = %50, %49, %47, %lean_dec.exit22
  %51 = ptrtoint ptr %3 to i64
  %52 = and i64 %51, 1
  %.not41 = icmp eq i64 %52, 0
  br i1 %.not41, label %53, label %lean_dec.exit20

53:                                               ; preds = %lean_dec.exit21
  %54 = load i32, ptr %3, align 4, !tbaa !8
  %55 = icmp sgt i32 %54, 1
  br i1 %55, label %56, label %58, !prof !11

56:                                               ; preds = %53
  %57 = add nsw i32 %54, -1
  store i32 %57, ptr %3, align 4, !tbaa !8
  br label %lean_dec.exit20

58:                                               ; preds = %53
  %.not.i31 = icmp eq i32 %54, 0
  br i1 %.not.i31, label %lean_dec.exit20, label %59

59:                                               ; preds = %58
  tail call void @lean_dec_ref_cold(ptr noundef nonnull %3) #5
  br label %lean_dec.exit20

lean_dec.exit20:                                  ; preds = %59, %58, %56, %lean_dec.exit21
  %60 = ptrtoint ptr %2 to i64
  %61 = and i64 %60, 1
  %.not42 = icmp eq i64 %61, 0
  br i1 %.not42, label %62, label %lean_dec.exit19

62:                                               ; preds = %lean_dec.exit20
  %63 = load i32, ptr %2, align 4, !tbaa !8
  %64 = icmp sgt i32 %63, 1
  br i1 %64, label %65, label %67, !prof !11

65:                                               ; preds = %62
  %66 = add nsw i32 %63, -1
  store i32 %66, ptr %2, align 4, !tbaa !8
  br label %lean_dec.exit19

67:                                               ; preds = %62
  %.not.i33 = icmp eq i32 %63, 0
  br i1 %.not.i33, label %lean_dec.exit19, label %68

68:                                               ; preds = %67
  tail call void @lean_dec_ref_cold(ptr noundef nonnull %2) #5
  br label %lean_dec.exit19

lean_dec.exit19:                                  ; preds = %68, %67, %65, %lean_dec.exit20
  %69 = ptrtoint ptr %0 to i64
  %70 = and i64 %69, 1
  %.not43 = icmp eq i64 %70, 0
  br i1 %.not43, label %71, label %lean_dec.exit

71:                                               ; preds = %lean_dec.exit19
  %72 = load i32, ptr %0, align 4, !tbaa !8
  %73 = icmp sgt i32 %72, 1
  br i1 %73, label %74, label %76, !prof !11

74:                                               ; preds = %71
  %75 = add nsw i32 %72, -1
  store i32 %75, ptr %0, align 4, !tbaa !8
  br label %lean_dec.exit

76:                                               ; preds = %71
  %.not.i35 = icmp eq i32 %72, 0
  br i1 %.not.i35, label %lean_dec.exit, label %77

77:                                               ; preds = %76
  tail call void @lean_dec_ref_cold(ptr noundef nonnull %0) #5
  br label %lean_dec.exit

lean_dec.exit:                                    ; preds = %77, %76, %74, %lean_dec.exit19
  ret ptr %41
}